target datalayout = "e-m:e-p270:32:32-p271:32:32-p272:64:64-i64:64-i128:128-f80:128-n8:16:32:64-S128"
target triple = "x86_64-pc-linux-gnu"

%struct.DES_ks = type { [16 x %union.anon] }
%union.anon = type { [2 x i32] }

@.str.24 = private unnamed_addr constant [26 x i8] c"../openssl/test/destest.c\00", align 1
@.str.32 = private unnamed_addr constant [35 x i8] c"DES_set_key_checked(&cbc_key, &ks)\00", align 1
@.str.33 = private unnamed_addr constant [2 x i8] c"0\00", align 1
@cbc_key = internal global [8 x i8] c"\01#Eg\89\AB\CD\EF", align 1
@cbc_iv = internal global [8 x i8] c"\FE\DC\BA\98vT2\10", align 1
@.str.34 = private unnamed_addr constant [8 x i8] c"cbc_out\00", align 1
@.str.35 = private unnamed_addr constant [7 x i8] c"cbc_ok\00", align 1
@cbc_ok = internal global [32 x i8] c"\CC\D1s\FF\AB 9\F4\AC\D8\AE\FD\DF\D8\A1\EBF\8E\91\15x\88\BAh\1D&\93\97\F7\FEb\B4", align 16
@.str.36 = private unnamed_addr constant [7 x i8] c"cbc_in\00", align 1
@.str.37 = private unnamed_addr constant [9 x i8] c"cbc_data\00", align 1
@cbc_data = internal global <{ [30 x i8], [10 x i8] }> <{ [30 x i8] c"7654321 Now is the time for \001", [10 x i8] zeroinitializer }>, align 16

; Function Attrs: nounwind uwtable
define internal i32 @test_des_cbc() #0 {
  %1 = alloca i32, align 4
  %2 = alloca [40 x i8], align 16
  %3 = alloca [40 x i8], align 16
  %4 = alloca [8 x i8], align 1
  %5 = alloca %struct.DES_ks, align 4
  %6 = alloca i64, align 8
  %7 = alloca i32, align 4
  call void @llvm.lifetime.start.p0(i64 40, ptr %2) #6
  call void @llvm.lifetime.start.p0(i64 40, ptr %3) #6
  call void @llvm.lifetime.start.p0(i64 8, ptr %4) #6
  call void @llvm.lifetime.start.p0(i64 128, ptr %5) #6
  call void @llvm.lifetime.start.p0(i64 8, ptr %6) #6
  %8 = call i64 @strlen(ptr noundef @cbc_data) #7
  store i64 %8, ptr %6, align 8, !tbaa !8
  %9 = call i32 @DES_set_key_checked(ptr noundef @cbc_key, ptr noundef %5)
  %10 = call i32 @test_int_eq(ptr noundef @.str.24, i32 noundef 380, ptr noundef @.str.32, ptr noundef @.str.33, i32 noundef %9, i32 noundef 0)
  %11 = icmp ne i32 %10, 0
  br i1 %11, label %13, label %12

12:                                               ; preds = %0
  store i32 0, ptr %1, align 4
  store i32 1, ptr %7, align 4
  br label %34

13:                                               ; preds = %0
  %14 = getelementptr inbounds [40 x i8], ptr %3, i64 0, i64 0
  call void @llvm.memset.p0.i64(ptr align 16 %14, i8 0, i64 40, i1 false)
  %15 = getelementptr inbounds [40 x i8], ptr %2, i64 0, i64 0
  call void @llvm.memset.p0.i64(ptr align 16 %15, i8 0, i64 40, i1 false)
  %16 = getelementptr inbounds [8 x i8], ptr %4, i64 0, i64 0
  call void @llvm.memcpy.p0.p0.i64(ptr align 1 %16, ptr align 1 @cbc_iv, i64 8, i1 false)
  %17 = getelementptr inbounds [40 x i8], ptr %3, i64 0, i64 0
  %18 = load i64, ptr %6, align 8, !tbaa !8
  %19 = add i64 %18, 1
  call void @DES_ncbc_encrypt(ptr noundef @cbc_data, ptr noundef %17, i64 noundef %19, ptr noundef %5, ptr noundef %4, i32 noundef 1)
  %20 = getelementptr inbounds [40 x i8], ptr %3, i64 0, i64 0
  %21 = call i32 @test_mem_eq(ptr noundef @.str.24, i32 noundef 387, ptr noundef @.str.34, ptr noundef @.str.35, ptr noundef %20, i64 noundef 32, ptr noundef @cbc_ok, i64 noundef 32)
  %22 = icmp ne i32 %21, 0
  br i1 %22, label %24, label %23

23:                                               ; preds = %13
  store i32 0, ptr %1, align 4
  store i32 1, ptr %7, align 4
  br label %34

24:                                               ; preds = %13
  %25 = getelementptr inbounds [8 x i8], ptr %4, i64 0, i64 0
  call void @llvm.memcpy.p0.p0.i64(ptr align 1 %25, ptr align 1 @cbc_iv, i64 8, i1 false)
  %26 = getelementptr inbounds [40 x i8], ptr %3, i64 0, i64 0
  %27 = getelementptr inbounds [40 x i8], ptr %2, i64 0, i64 0
  %28 = load i64, ptr %6, align 8, !tbaa !8
  %29 = add i64 %28, 1
  call void @DES_ncbc_encrypt(ptr noundef %26, ptr noundef %27, i64 noundef %29, ptr noundef %5, ptr noundef %4, i32 noundef 0)
  %30 = getelementptr inbounds [40 x i8], ptr %2, i64 0, i64 0
  %31 = load i64, ptr %6, align 8, !tbaa !8
  %32 = load i64, ptr %6, align 8, !tbaa !8
  %33 = call i32 @test_mem_eq(ptr noundef @.str.24, i32 noundef 393, ptr noundef @.str.36, ptr noundef @.str.37, ptr noundef %30, i64 noundef %31, ptr noundef @cbc_data, i64 noundef %32)
  store i32 %33, ptr %1, align 4
  store i32 1, ptr %7, align 4
  br label %34

34:                                               ; preds = %24, %23, %12
  call void @llvm.lifetime.end.p0(i64 8, ptr %6) #6
  call void @llvm.lifetime.end.p0(i64 128, ptr %5) #6
  call void @llvm.lifetime.end.p0(i64 8, ptr %4) #6
  call void @llvm.lifetime.end.p0(i64 40, ptr %3) #6
  call void @llvm.lifetime.end.p0(i64 40, ptr %2) #6
  %35 = load i32, ptr %1, align 4
  ret i32 %35
}